; ModuleID = 'bench/linux/original/cardbus.ll'
source_filename = "bench/linux/original/cardbus.ll"
target datalayout = "e-m:e-p270:32:32-p271:32:32-p272:64:64-i64:64-i128:128-f80:128-n8:16:32:64-S128"
target triple = "x86_64-unknown-linux-gnu"

; Function Attrs: fn_ret_thunk_extern nounwind null_pointer_is_valid
define dso_local noundef i32 @cb_alloc(ptr noundef %0) local_unnamed_addr #0 section ".ref.text" align 16 {
  %2 = getelementptr inbounds i8, ptr %0, i64 336
  %3 = load ptr, ptr %2, align 8
  %4 = getelementptr inbounds i8, ptr %3, i64 24
  %5 = load ptr, ptr %4, align 8
  tail call void @pci_lock_rescan_remove() #3
  %6 = tail call i32 @pci_scan_slot(ptr noundef %5, i32 noundef 0) #3
  %7 = trunc i32 %6 to i16
  %8 = getelementptr inbounds i8, ptr %0, i64 28
  store i16 %7, ptr %8, align 4
  tail call void @pci_fixup_cardbus(ptr noundef %5) #3
  %9 = getelementptr inbounds i8, ptr %5, i64 40
  %10 = load ptr, ptr %9, align 8
  %11 = icmp eq ptr %10, %9
  br i1 %11, label %.split4, label %.split.preheader

.split.preheader:                                 ; preds = %1
  %12 = getelementptr inbounds i8, ptr %5, i64 128
  %13 = load i64, ptr %12, align 8
  %14 = trunc i64 %13 to i32
  br label %.split

.split:                                           ; preds = %.split.preheader, %.loopexit
  %15 = phi i32 [ %32, %.loopexit ], [ %14, %.split.preheader ]
  %16 = phi i1 [ false, %.loopexit ], [ true, %.split.preheader ]
  %17 = phi i32 [ 1, %.loopexit ], [ 0, %.split.preheader ]
  %18 = load ptr, ptr %9, align 8
  %19 = icmp eq ptr %18, %9
  br i1 %19, label %.loopexit, label %.preheader

.preheader:                                       ; preds = %.split, %28
  %20 = phi ptr [ %30, %28 ], [ %18, %.split ]
  %21 = phi i32 [ %29, %28 ], [ %15, %.split ]
  %22 = getelementptr inbounds i8, ptr %20, i64 73
  %23 = load i8, ptr %22, align 1
  %24 = add i8 %23, -1
  %25 = icmp ult i8 %24, 2
  br i1 %25, label %26, label %28

26:                                               ; preds = %.preheader
  %27 = tail call i32 @pci_scan_bridge(ptr noundef %5, ptr noundef %20, i32 noundef %21, i32 noundef %17) #3
  br label %28

28:                                               ; preds = %26, %.preheader
  %29 = phi i32 [ %27, %26 ], [ %21, %.preheader ]
  %30 = load ptr, ptr %20, align 8
  %31 = icmp eq ptr %30, %9
  br i1 %31, label %.loopexit, label %.preheader, !llvm.loop !5

.loopexit:                                        ; preds = %28, %.split
  %32 = phi i32 [ %15, %.split ], [ %29, %28 ]
  br i1 %16, label %.split, label %.split4, !llvm.loop !8

.split4:                                          ; preds = %.loopexit, %1
  tail call void @pci_bus_size_bridges(ptr noundef %5) #3
  tail call void @pci_bus_assign_resources(ptr noundef %5) #3
  %33 = getelementptr inbounds i8, ptr %0, i64 332
  %34 = load i32, ptr %33, align 4
  tail call fastcc void @cardbus_config_irq_and_cls(ptr noundef %5, i32 noundef %34)
  %35 = getelementptr inbounds i8, ptr %0, i64 392
  %36 = load ptr, ptr %35, align 8
  %37 = icmp eq ptr %36, null
  br i1 %37, label %39, label %38

38:                                               ; preds = %.split4
  tail call void %36(ptr noundef %0, ptr noundef %5) #3
  br label %39

39:                                               ; preds = %38, %.split4
  tail call void @pci_bus_add_devices(ptr noundef %5) #3
  tail call void @pci_unlock_rescan_remove() #3
  ret i32 0
}

; Function Attrs: mustprogress nocallback nofree nosync nounwind willreturn memory(argmem: readwrite)
declare void @llvm.lifetime.start.p0(i64 immarg, ptr nocapture) #1

; Function Attrs: null_pointer_is_valid
declare dso_local void @pci_lock_rescan_remove() local_unnamed_addr #2

; Function Attrs: null_pointer_is_valid
declare dso_local i32 @pci_scan_slot(ptr noundef, i32 noundef) local_unnamed_addr #2

; Function Attrs: null_pointer_is_valid
declare dso_local void @pci_fixup_cardbus(ptr noundef) local_unnamed_addr #2

; Function Attrs: mustprogress nocallback nofree nosync nounwind willreturn memory(argmem: readwrite)
declare void @llvm.lifetime.end.p0(i64 immarg, ptr nocapture) #1

; Function Attrs: null_pointer_is_valid
declare dso_local i32 @pci_scan_bridge(ptr noundef, ptr noundef, i32 noundef, i32 noundef) local_unnamed_addr #2

; Function Attrs: null_pointer_is_valid
declare dso_local void @pci_bus_size_bridges(ptr noundef) local_unnamed_addr #2

; Function Attrs: null_pointer_is_valid
declare dso_local void @pci_bus_assign_resources(ptr noundef) local_unnamed_addr #2

; Function Attrs: fn_ret_thunk_extern nounwind null_pointer_is_valid
define internal fastcc void @cardbus_config_irq_and_cls(ptr noundef readonly %0, i32 noundef %1) unnamed_addr #0 align 16 {
  %3 = alloca i8, align 1
  %4 = getelementptr inbounds i8, ptr %0, i64 40
  %5 = load ptr, ptr %4, align 8
  %6 = icmp eq ptr %5, %4
  br i1 %6, label %.loopexit, label %7

7:                                                ; preds = %2
  %8 = trunc i32 %1 to i8
  br label %9

9:                                                ; preds = %23, %7
  %10 = phi ptr [ %5, %7 ], [ %24, %23 ]
  call void @llvm.lifetime.start.p0(i64 1, ptr nonnull %3) #3
  store i8 0, ptr %3, align 1, !annotation !10
  %11 = call i32 @pci_read_config_byte(ptr noundef %10, i32 noundef 61, ptr noundef nonnull %3) #3
  %12 = load i8, ptr %3, align 1
  %13 = icmp eq i8 %12, 0
  br i1 %13, label %17, label %14

14:                                               ; preds = %9
  %15 = getelementptr inbounds i8, ptr %10, i64 916
  store i32 %1, ptr %15, align 4
  %16 = call i32 @pci_write_config_byte(ptr noundef %10, i32 noundef 60, i8 noundef zeroext %8) #3
  br label %17

17:                                               ; preds = %14, %9
  %18 = call i32 @pci_set_cacheline_size(ptr noundef %10) #3
  %19 = getelementptr inbounds i8, ptr %10, i64 24
  %20 = load ptr, ptr %19, align 8
  %21 = icmp eq ptr %20, null
  br i1 %21, label %23, label %22

22:                                               ; preds = %17
  call fastcc void @cardbus_config_irq_and_cls(ptr noundef nonnull %20, i32 noundef %1)
  br label %23

23:                                               ; preds = %22, %17
  call void @llvm.lifetime.end.p0(i64 1, ptr nonnull %3) #3
  %24 = load ptr, ptr %10, align 8
  %25 = icmp eq ptr %24, %4
  br i1 %25, label %.loopexit, label %9, !llvm.loop !11

.loopexit:                                        ; preds = %23, %2
  ret void
}

; Function Attrs: null_pointer_is_valid
declare dso_local void @pci_bus_add_devices(ptr noundef) local_unnamed_addr #2

; Function Attrs: null_pointer_is_valid
declare dso_local void @pci_unlock_rescan_remove() local_unnamed_addr #2

; Function Attrs: fn_ret_thunk_extern nounwind null_pointer_is_valid
define dso_local void @cb_free(ptr nocapture noundef readonly %0) local_unnamed_addr #0 align 16 {
  %2 = getelementptr inbounds i8, ptr %0, i64 336
  %3 = load ptr, ptr %2, align 8
  %4 = icmp eq ptr %3, null
  br i1 %4, label %16, label %5

5:                                                ; preds = %1
  %6 = getelementptr inbounds i8, ptr %3, i64 24
  %7 = load ptr, ptr %6, align 8
  %8 = icmp eq ptr %7, null
  br i1 %8, label %16, label %9

9:                                                ; preds = %5
  tail call void @pci_lock_rescan_remove() #3
  %10 = getelementptr inbounds i8, ptr %7, i64 40
  %11 = load ptr, ptr %10, align 8
  %12 = icmp eq ptr %11, %10
  br i1 %12, label %.loopexit, label %.preheader

.preheader:                                       ; preds = %9, %.preheader
  %13 = phi ptr [ %14, %.preheader ], [ %11, %9 ]
  %14 = load ptr, ptr %13, align 8
  tail call void @pci_stop_and_remove_bus_device(ptr noundef %13) #3
  %15 = icmp eq ptr %14, %10
  br i1 %15, label %.loopexit, label %.preheader, !llvm.loop !12

.loopexit:                                        ; preds = %.preheader, %9
  tail call void @pci_unlock_rescan_remove() #3
  br label %16

16:                                               ; preds = %.loopexit, %5, %1
  ret void
}

; Function Attrs: null_pointer_is_valid
declare dso_local void @pci_stop_and_remove_bus_device(ptr noundef) local_unnamed_addr #2

; Function Attrs: null_pointer_is_valid
declare dso_local i32 @pci_read_config_byte(ptr noundef, i32 noundef, ptr noundef) local_unnamed_addr #2

; Function Attrs: null_pointer_is_valid
declare dso_local i32 @pci_write_config_byte(ptr noundef, i32 noundef, i8 noundef zeroext) local_unnamed_addr #2

; Function Attrs: null_pointer_is_valid
declare dso_local i32 @pci_set_cacheline_size(ptr noundef) local_unnamed_addr #2


!llvm.module.flags = !{!0, !1, !2, !3, !4}

!0 = !{i32 1, !"wchar_size", i32 2}
!1 = !{i32 8, !"cf-protection-branch", i32 1}
!2 = !{i32 4, !"function_return_thunk_extern", i32 1}
!3 = !{i32 4, !"indirect_branch_cs_prefix", i32 1}
!4 = !{i32 4, !"SkipRaxSetup", i32 1}
!5 = distinct !{!5, !6, !7}
!6 = !{!"llvm.loop.mustprogress"}
!7 = !{!"llvm.loop.unroll.disable"}
!8 = distinct !{!8, !6, !7, !9}
!9 = !{!"llvm.loop.unswitch.partial.disable"}
!10 = !{!"auto-init"}
!11 = distinct !{!11, !6, !7}
!12 = distinct !{!12, !6, !7}
